target datalayout = "e-m:e-p270:32:32-p271:32:32-p272:64:64-i64:64-i128:128-f80:128-n8:16:32:64-S128"
target triple = "x86_64-pc-linux-gnu"

%struct.cli_hashtable = type { ptr, i64, i64, i64 }
%struct.cli_element = type { ptr, i64, i64 }

@DELETED_KEY = internal constant [1 x i8] zeroinitializer, align 1

; Function Attrs: nounwind uwtable
define void @cli_hashtab_clear(ptr noundef %0) #0 {
  %2 = alloca ptr, align 8
  %3 = alloca i64, align 8
  store ptr %0, ptr %2, align 8
  store i64 0, ptr %3, align 8
  br label %4

4:                                                ; preds = %37, %1
  %5 = load i64, ptr %3, align 8
  %6 = load ptr, ptr %2, align 8
  %7 = getelementptr inbounds %struct.cli_hashtable, ptr %6, i32 0, i32 1
  %8 = load i64, ptr %7, align 8
  %9 = icmp ult i64 %5, %8
  br i1 %9, label %10, label %40

10:                                               ; preds = %4
  %11 = load ptr, ptr %2, align 8
  %12 = getelementptr inbounds %struct.cli_hashtable, ptr %11, i32 0, i32 0
  %13 = load ptr, ptr %12, align 8
  %14 = load i64, ptr %3, align 8
  %15 = getelementptr inbounds %struct.cli_element, ptr %13, i64 %14
  %16 = getelementptr inbounds %struct.cli_element, ptr %15, i32 0, i32 0
  %17 = load ptr, ptr %16, align 8
  %18 = icmp ne ptr %17, null
  br i1 %18, label %19, label %36

19:                                               ; preds = %10
  %20 = load ptr, ptr %2, align 8
  %21 = getelementptr inbounds %struct.cli_hashtable, ptr %20, i32 0, i32 0
  %22 = load ptr, ptr %21, align 8
  %23 = load i64, ptr %3, align 8
  %24 = getelementptr inbounds %struct.cli_element, ptr %22, i64 %23
  %25 = getelementptr inbounds %struct.cli_element, ptr %24, i32 0, i32 0
  %26 = load ptr, ptr %25, align 8
  %27 = icmp ne ptr %26, @DELETED_KEY
  br i1 %27, label %28, label %36

28:                                               ; preds = %19
  %29 = load ptr, ptr %2, align 8
  %30 = getelementptr inbounds %struct.cli_hashtable, ptr %29, i32 0, i32 0
  %31 = load ptr, ptr %30, align 8
  %32 = load i64, ptr %3, align 8
  %33 = getelementptr inbounds %struct.cli_element, ptr %31, i64 %32
  %34 = getelementptr inbounds %struct.cli_element, ptr %33, i32 0, i32 0
  %35 = load ptr, ptr %34, align 8
  call void @free(ptr noundef %35) #7
  br label %36

36:                                               ; preds = %28, %19, %10
  br label %37

37:                                               ; preds = %36
  %38 = load i64, ptr %3, align 8
  %39 = add i64 %38, 1
  store i64 %39, ptr %3, align 8
  br label %4

40:                                               ; preds = %4
  %41 = load ptr, ptr %2, align 8
  %42 = getelementptr inbounds %struct.cli_hashtable, ptr %41, i32 0, i32 0
  %43 = load ptr, ptr %42, align 8
  %44 = icmp ne ptr %43, null
  br i1 %44, label %45, label %53

45:                                               ; preds = %40
  %46 = load ptr, ptr %2, align 8
  %47 = getelementptr inbounds %struct.cli_hashtable, ptr %46, i32 0, i32 0
  %48 = load ptr, ptr %47, align 8
  %49 = load ptr, ptr %2, align 8
  %50 = getelementptr inbounds %struct.cli_hashtable, ptr %49, i32 0, i32 1
  %51 = load i64, ptr %50, align 8
  %52 = mul i64 %51, 24
  call void @llvm.memset.p0.i64(ptr align 8 %48, i8 0, i64 %52, i1 false)
  br label %53

53:                                               ; preds = %45, %40
  %54 = load ptr, ptr %2, align 8
  %55 = getelementptr inbounds %struct.cli_hashtable, ptr %54, i32 0, i32 2
  store i64 0, ptr %55, align 8
  ret void
}