; Function Attrs: nounwind uwtable
define void @cli_hashtab_clear(ptr nocapture noundef %0) local_unnamed_addr #0 {
  %2 = getelementptr inbounds i8, ptr %0, i64 8
  %3 = load i64, ptr %2, align 8
  %.not18 = icmp eq i64 %3, 0
  br i1 %.not18, label %._crit_edge, label %.lr.ph

.lr.ph:                                           ; preds = %1, %9
  %4 = phi i64 [ %10, %9 ], [ %3, %1 ]
  %.017 = phi i64 [ %11, %9 ], [ 0, %1 ]
  %5 = load ptr, ptr %0, align 8
  %6 = getelementptr inbounds %struct.cli_element, ptr %5, i64 %.017
  %7 = load ptr, ptr %6, align 8
  %.not15 = icmp eq ptr %7, null
  %.not16 = icmp eq ptr %7, @DELETED_KEY
  %or.cond = or i1 %.not15, %.not16
  br i1 %or.cond, label %9, label %8

8:                                                ; preds = %.lr.ph
  tail call void @free(ptr noundef nonnull %7) #18
  %.pre = load i64, ptr %2, align 8
  br label %9

9:                                                ; preds = %.lr.ph, %8
  %10 = phi i64 [ %4, %.lr.ph ], [ %.pre, %8 ]
  %11 = add nuw i64 %.017, 1
  %12 = icmp ult i64 %11, %10
  br i1 %12, label %.lr.ph, label %._crit_edge.loopexit

._crit_edge.loopexit:                             ; preds = %9
  %13 = mul i64 %10, 24
  br label %._crit_edge

._crit_edge:                                      ; preds = %._crit_edge.loopexit, %1
  %.lcssa = phi i64 [ 0, %1 ], [ %13, %._crit_edge.loopexit ]
  %14 = load ptr, ptr %0, align 8
  %.not = icmp eq ptr %14, null
  br i1 %.not, label %16, label %15

15:                                               ; preds = %._crit_edge
  tail call void @llvm.memset.p0.i64(ptr nonnull align 8 %14, i8 0, i64 %.lcssa, i1 false)
  br label %16

16:                                               ; preds = %15, %._crit_edge
  %17 = getelementptr inbounds i8, ptr %0, i64 16
  store i64 0, ptr %17, align 8
  ret void
}